; Function Attrs: mustprogress uwtable
define hidden void @_ZN4cvc58internal3smt17SolverEngineState13notifyUserPopEv(ptr noundef nonnull align 8 dereferenceable(108) %0) local_unnamed_addr #3 align 2 personality ptr @__gxx_personality_v0 {
  %2 = tail call noundef nonnull align 8 dereferenceable(408) ptr @_ZNK4cvc58internal6EnvObj7optionsEv(ptr noundef nonnull align 8 dereferenceable(16) %0)
  %3 = getelementptr inbounds nuw i8, ptr %2, i64 224
  %4 = load ptr, ptr %3, align 8, !tbaa !215
  %5 = getelementptr inbounds nuw i8, ptr %4, i64 137
  %6 = load i8, ptr %5, align 1, !tbaa !216, !range !213, !noundef !214
  %7 = trunc nuw i8 %6 to i1
  br i1 %7, label %13, label %8

8:                                                ; preds = %1
  %9 = tail call ptr @__cxa_allocate_exception(i64 40) #17
  invoke void @_ZN4cvc58internal14ModalExceptionC2EPKc(ptr noundef nonnull align 8 dereferenceable(40) %9, ptr noundef nonnull @.str.4)
          to label %10 unwind label %11

10:                                               ; preds = %8
  tail call void @__cxa_throw(ptr nonnull %9, ptr nonnull @_ZTIN4cvc58internal14ModalExceptionE, ptr nonnull @_ZN4cvc58internal9ExceptionD2Ev) #18
  unreachable

11:                                               ; preds = %8
  %12 = landingpad { ptr, i32 }
          cleanup
  tail call void @__cxa_free_exception(ptr nonnull %9) #17
  resume { ptr, i32 } %12

13:                                               ; preds = %1
  %14 = getelementptr inbounds nuw i8, ptr %0, i64 104
  store i32 1, ptr %14, align 8, !tbaa !22
  ret void
}